; Function Attrs: nounwind uwtable
define hidden i64 @drmp3_get_mp3_frame_count(ptr noundef %0) local_unnamed_addr #7 {
  %2 = alloca i64, align 8
  call void @llvm.lifetime.start.p0(i64 8, ptr nonnull %2) #72
  %3 = call i32 @drmp3_get_mp3_and_pcm_frame_count(ptr noundef %0, ptr noundef nonnull %2, ptr noundef null)
  %.not = icmp eq i32 %3, 0
  %4 = load i64, ptr %2, align 8
  %.0 = select i1 %.not, i64 0, i64 %4
  call void @llvm.lifetime.end.p0(i64 8, ptr nonnull %2) #72
  ret i64 %.0
}